target datalayout = "e-m:e-p270:32:32-p271:32:32-p272:64:64-i64:64-i128:128-f80:128-n8:16:32:64-S128"
target triple = "x86_64-pc-linux-gnu"

%struct.___itt_id = type { i64, i64, i64 }
%"class.cv::utils::trace::details::TraceManager" = type { %"class.std::recursive_mutex", %"class.std::recursive_mutex", %"class.cv::TLSDataAccumulator", %"struct.cv::Ptr" }
%"class.std::recursive_mutex" = type { %"class.std::__recursive_mutex_base" }
%"class.std::__recursive_mutex_base" = type { %union.pthread_mutex_t }
%union.pthread_mutex_t = type { %struct.__pthread_mutex_s }
%struct.__pthread_mutex_s = type { i32, i32, i32, i32, i32, i16, i16, %struct.__pthread_internal_list }
%struct.__pthread_internal_list = type { ptr, ptr }
%"class.cv::TLSDataAccumulator" = type <{ %"class.cv::TLSData.base", [4 x i8], %"class.std::recursive_mutex", %"class.std::vector", %"class.std::vector", i8, [7 x i8] }>
%"class.cv::TLSData.base" = type { %"class.cv::TLSDataContainer.base" }
%"class.cv::TLSDataContainer.base" = type <{ ptr, i32 }>
%"class.std::vector" = type { %"struct.std::_Vector_base" }
%"struct.std::_Vector_base" = type { %"struct.std::_Vector_base<cv::utils::trace::details::TraceManagerThreadLocal *, std::allocator<cv::utils::trace::details::TraceManagerThreadLocal *>>::_Vector_impl" }
%"struct.std::_Vector_base<cv::utils::trace::details::TraceManagerThreadLocal *, std::allocator<cv::utils::trace::details::TraceManagerThreadLocal *>>::_Vector_impl" = type { %"struct.std::_Vector_base<cv::utils::trace::details::TraceManagerThreadLocal *, std::allocator<cv::utils::trace::details::TraceManagerThreadLocal *>>::_Vector_impl_data" }
%"struct.std::_Vector_base<cv::utils::trace::details::TraceManagerThreadLocal *, std::allocator<cv::utils::trace::details::TraceManagerThreadLocal *>>::_Vector_impl_data" = type { ptr, ptr, ptr }
%"struct.cv::Ptr" = type { %"class.std::shared_ptr" }
%"class.std::shared_ptr" = type { %"class.std::__shared_ptr" }
%"class.std::__shared_ptr" = type { ptr, %"class.std::__shared_count" }
%"class.std::__shared_count" = type { ptr }
%"class.cv::utils::trace::details::Region::Impl" = type { ptr, ptr, ptr, i32, i32, i64, i64, i32, i8, %struct.___itt_id }
%"struct.cv::utils::trace::details::TraceManagerThreadLocal" = type { i32, i32, i64, ptr, %"class.std::deque", i32, i32, %"struct.cv::utils::trace::details::RegionStatistics", %"struct.cv::utils::trace::details::RegionStatisticsStatus", %"struct.cv::utils::trace::details::TraceManagerThreadLocal::StackEntry", %"struct.cv::utils::trace::details::RegionStatistics", %"struct.cv::utils::trace::details::RegionStatisticsStatus", i64, %"struct.cv::Ptr" }
%"class.std::deque" = type { %"class.std::_Deque_base" }
%"class.std::_Deque_base" = type { %"struct.std::_Deque_base<cv::utils::trace::details::TraceManagerThreadLocal::StackEntry, std::allocator<cv::utils::trace::details::TraceManagerThreadLocal::StackEntry>>::_Deque_impl" }
%"struct.std::_Deque_base<cv::utils::trace::details::TraceManagerThreadLocal::StackEntry, std::allocator<cv::utils::trace::details::TraceManagerThreadLocal::StackEntry>>::_Deque_impl" = type { %"struct.std::_Deque_base<cv::utils::trace::details::TraceManagerThreadLocal::StackEntry, std::allocator<cv::utils::trace::details::TraceManagerThreadLocal::StackEntry>>::_Deque_impl_data" }
%"struct.std::_Deque_base<cv::utils::trace::details::TraceManagerThreadLocal::StackEntry, std::allocator<cv::utils::trace::details::TraceManagerThreadLocal::StackEntry>>::_Deque_impl_data" = type { ptr, i64, %"struct.std::_Deque_iterator", %"struct.std::_Deque_iterator" }
%"struct.std::_Deque_iterator" = type { ptr, ptr, ptr, ptr }
%"struct.cv::utils::trace::details::TraceManagerThreadLocal::StackEntry" = type { ptr, ptr, i64 }
%"struct.cv::utils::trace::details::RegionStatistics" = type { i32, i64 }
%"struct.cv::utils::trace::details::RegionStatisticsStatus" = type { i32 }
%"class.cv::utils::trace::details::Region" = type <{ ptr, i32, [4 x i8] }>
%struct.___itt_domain = type { i32, ptr, ptr, i32, ptr, ptr }

@_ZN2cv5utils5trace7detailsL6domainE = internal global ptr null, align 8
@_ZZN2cv5utils5trace7details15getTraceManagerEvE8instance = internal global ptr null, align 8
@_ZGVZN2cv5utils5trace7details15getTraceManagerEvE8instance = internal global i64 0, align 8
@__itt_relation_add_ptr__3_0 = external global ptr, align 8

; Function Attrs: inlinehint mustprogress nounwind uwtable
define linkonce_odr hidden noundef ptr @_ZN2cv5utils5trace7details23TraceManagerThreadLocal22getCurrentActiveRegionEv(ptr noundef nonnull align 8 dereferenceable(208) %0) #13 comdat align 2 {
  %2 = alloca ptr, align 8
  store ptr %0, ptr %2, align 8, !tbaa !61
  %3 = load ptr, ptr %2, align 8
  %4 = getelementptr inbounds nuw %"struct.cv::utils::trace::details::TraceManagerThreadLocal", ptr %3, i32 0, i32 3
  %5 = load ptr, ptr %4, align 8, !tbaa !98
  ret ptr %5
}

; Function Attrs: inlinehint mustprogress uwtable
define linkonce_odr hidden noundef nonnull align 8 dereferenceable(208) ptr @_ZNK2cv7TLSDataINS_5utils5trace7details23TraceManagerThreadLocalEE6getRefEv(ptr noundef nonnull align 8 dereferenceable(12) %0) #12 comdat align 2 {
  %2 = alloca ptr, align 8
  %3 = alloca ptr, align 8
  store ptr %0, ptr %2, align 8, !tbaa !124
  %4 = load ptr, ptr %2, align 8
  call void @llvm.lifetime.start.p0(i64 8, ptr %3) #3
  %5 = call noundef ptr @_ZNK2cv16TLSDataContainer7getDataEv(ptr noundef nonnull align 8 dereferenceable(12) %4)
  store ptr %5, ptr %3, align 8, !tbaa !61
  %6 = load ptr, ptr %3, align 8, !tbaa !61
  call void @llvm.lifetime.end.p0(i64 8, ptr %3) #3
  ret ptr %6
}

; Function Attrs: mustprogress uwtable
define noundef nonnull align 8 dereferenceable(208) ptr @_ZN2cv5utils5trace7details15getTraceManagerEv() #4 personality ptr @__gxx_personality_v0 {
  %1 = alloca ptr, align 8
  %2 = alloca i32, align 4
  %3 = load atomic i8, ptr @_ZGVZN2cv5utils5trace7details15getTraceManagerEvE8instance acquire, align 8
  %4 = icmp eq i8 %3, 0
  br i1 %4, label %5, label %12, !prof !42

5:                                                ; preds = %0
  %6 = call i32 @__cxa_guard_acquire(ptr @_ZGVZN2cv5utils5trace7details15getTraceManagerEvE8instance) #3
  %7 = icmp ne i32 %6, 0
  br i1 %7, label %8, label %12

8:                                                ; preds = %5
  %9 = invoke noundef ptr @_ZN2cv5utils5trace7detailsL23getTraceManagerCallOnceEv()
          to label %10 unwind label %14

10:                                               ; preds = %8
  store ptr %9, ptr @_ZZN2cv5utils5trace7details15getTraceManagerEvE8instance, align 8, !tbaa !43
  %11 = call ptr @llvm.invariant.start.p0(i64 8, ptr @_ZZN2cv5utils5trace7details15getTraceManagerEvE8instance)
  call void @__cxa_guard_release(ptr @_ZGVZN2cv5utils5trace7details15getTraceManagerEvE8instance) #3
  br label %12

12:                                               ; preds = %10, %5, %0
  %13 = load ptr, ptr @_ZZN2cv5utils5trace7details15getTraceManagerEvE8instance, align 8, !tbaa !43
  ret ptr %13

14:                                               ; preds = %8
  %15 = landingpad { ptr, i32 }
          cleanup
  %16 = extractvalue { ptr, i32 } %15, 0
  store ptr %16, ptr %1, align 8
  %17 = extractvalue { ptr, i32 } %15, 1
  store i32 %17, ptr %2, align 4
  call void @__cxa_guard_abort(ptr @_ZGVZN2cv5utils5trace7details15getTraceManagerEvE8instance) #3
  br label %18

18:                                               ; preds = %14
  %19 = load ptr, ptr %1, align 8
  %20 = load i32, ptr %2, align 4
  %21 = insertvalue { ptr, i32 } poison, ptr %19, 0
  %22 = insertvalue { ptr, i32 } %21, i32 %20, 1
  resume { ptr, i32 } %22
}

; Function Attrs: mustprogress uwtable
define hidden void @_ZN2cv5utils5trace7details29parallelForAttachNestedRegionERKNS2_6RegionE(ptr noundef nonnull align 8 dereferenceable(12) %0) #4 {
  %2 = alloca ptr, align 8
  %3 = alloca ptr, align 8
  %4 = alloca ptr, align 8
  %5 = alloca i32, align 4
  %6 = alloca %struct.___itt_id, align 8
  %7 = alloca %struct.___itt_id, align 8
  store ptr %0, ptr %2, align 8, !tbaa !63
  call void @llvm.lifetime.start.p0(i64 8, ptr %3) #3
  %8 = call noundef nonnull align 8 dereferenceable(208) ptr @_ZN2cv5utils5trace7details15getTraceManagerEv()
  %9 = getelementptr inbounds nuw %"class.cv::utils::trace::details::TraceManager", ptr %8, i32 0, i32 2
  %10 = call noundef nonnull align 8 dereferenceable(208) ptr @_ZNK2cv7TLSDataINS_5utils5trace7details23TraceManagerThreadLocalEE6getRefEv(ptr noundef nonnull align 8 dereferenceable(12) %9)
  store ptr %10, ptr %3, align 8, !tbaa !61
  call void @llvm.lifetime.start.p0(i64 8, ptr %4) #3
  %11 = load ptr, ptr %3, align 8, !tbaa !61
  %12 = call noundef ptr @_ZN2cv5utils5trace7details23TraceManagerThreadLocal22getCurrentActiveRegionEv(ptr noundef nonnull align 8 dereferenceable(208) %11)
  store ptr %12, ptr %4, align 8, !tbaa !63
  %13 = load ptr, ptr %4, align 8, !tbaa !63
  %14 = icmp ne ptr %13, null
  br i1 %14, label %16, label %15

15:                                               ; preds = %1
  store i32 1, ptr %5, align 4
  br label %63

16:                                               ; preds = %1
  %17 = load ptr, ptr %2, align 8, !tbaa !63
  %18 = getelementptr inbounds nuw %"class.cv::utils::trace::details::Region", ptr %17, i32 0, i32 0
  %19 = load ptr, ptr %18, align 8, !tbaa !94
  %20 = icmp ne ptr %19, null
  br i1 %20, label %21, label %28

21:                                               ; preds = %16
  %22 = load ptr, ptr %2, align 8, !tbaa !63
  %23 = getelementptr inbounds nuw %"class.cv::utils::trace::details::Region", ptr %22, i32 0, i32 0
  %24 = load ptr, ptr %23, align 8, !tbaa !94
  %25 = getelementptr inbounds nuw %"class.cv::utils::trace::details::Region::Impl", ptr %24, i32 0, i32 8
  %26 = load i8, ptr %25, align 4, !tbaa !90, !range !26, !noundef !27
  %27 = trunc i8 %26 to i1
  br i1 %27, label %29, label %28

28:                                               ; preds = %21, %16
  store i32 1, ptr %5, align 4
  br label %63

29:                                               ; preds = %21
  %30 = load ptr, ptr %4, align 8, !tbaa !63
  %31 = getelementptr inbounds nuw %"class.cv::utils::trace::details::Region", ptr %30, i32 0, i32 0
  %32 = load ptr, ptr %31, align 8, !tbaa !94
  %33 = icmp ne ptr %32, null
  br i1 %33, label %35, label %34

34:                                               ; preds = %29
  store i32 1, ptr %5, align 4
  br label %63

35:                                               ; preds = %29
  %36 = load ptr, ptr @_ZN2cv5utils5trace7detailsL6domainE, align 8, !tbaa !28
  %37 = icmp eq ptr %36, null
  br i1 %37, label %38, label %39

38:                                               ; preds = %35
  br label %62

39:                                               ; preds = %35
  %40 = load ptr, ptr @_ZN2cv5utils5trace7detailsL6domainE, align 8, !tbaa !28
  %41 = getelementptr inbounds nuw %struct.___itt_domain, ptr %40, i32 0, i32 0
  %42 = load volatile i32, ptr %41, align 8, !tbaa !96
  %43 = icmp ne i32 %42, 0
  br i1 %43, label %45, label %44

44:                                               ; preds = %39
  br label %61

45:                                               ; preds = %39
  %46 = load ptr, ptr @__itt_relation_add_ptr__3_0, align 8, !tbaa !17
  %47 = icmp ne ptr %46, null
  br i1 %47, label %49, label %48

48:                                               ; preds = %45
  br label %60

49:                                               ; preds = %45
  %50 = load ptr, ptr @__itt_relation_add_ptr__3_0, align 8, !tbaa !17
  %51 = load ptr, ptr @_ZN2cv5utils5trace7detailsL6domainE, align 8, !tbaa !28
  %52 = load ptr, ptr %4, align 8, !tbaa !63
  %53 = getelementptr inbounds nuw %"class.cv::utils::trace::details::Region", ptr %52, i32 0, i32 0
  %54 = load ptr, ptr %53, align 8, !tbaa !94
  %55 = getelementptr inbounds nuw %"class.cv::utils::trace::details::Region::Impl", ptr %54, i32 0, i32 9
  call void @llvm.memcpy.p0.p0.i64(ptr align 8 %6, ptr align 8 %55, i64 24, i1 false), !tbaa.struct !91
  %56 = load ptr, ptr %2, align 8, !tbaa !63
  %57 = getelementptr inbounds nuw %"class.cv::utils::trace::details::Region", ptr %56, i32 0, i32 0
  %58 = load ptr, ptr %57, align 8, !tbaa !94
  %59 = getelementptr inbounds nuw %"class.cv::utils::trace::details::Region::Impl", ptr %58, i32 0, i32 9
  call void @llvm.memcpy.p0.p0.i64(ptr align 8 %7, ptr align 8 %59, i64 24, i1 false), !tbaa.struct !91
  call void %50(ptr noundef %51, ptr noundef byval(%struct.___itt_id) align 8 %6, i32 noundef 5, ptr noundef byval(%struct.___itt_id) align 8 %7)
  br label %60

60:                                               ; preds = %49, %48
  br label %61

61:                                               ; preds = %60, %44
  br label %62

62:                                               ; preds = %61, %38
  store i32 0, ptr %5, align 4
  br label %63

63:                                               ; preds = %62, %34, %28, %15
  call void @llvm.lifetime.end.p0(i64 8, ptr %4) #3
  call void @llvm.lifetime.end.p0(i64 8, ptr %3) #3
  %64 = load i32, ptr %5, align 4
  switch i32 %64, label %66 [
    i32 0, label %65
    i32 1, label %65
  ]

65:                                               ; preds = %63, %63
  ret void

66:                                               ; preds = %63
  unreachable
}