; Function Attrs: mustprogress uwtable
define hidden void @_ZN2cv5utils5trace7details29parallelForAttachNestedRegionERKNS2_6RegionE(ptr noundef nonnull readonly align 8 captures(none) dereferenceable(12) %0) local_unnamed_addr #3 personality ptr @__gxx_personality_v0 {
  %2 = load atomic i8, ptr @_ZGVZN2cv5utils5trace7details15getTraceManagerEvE8instance acquire, align 8
  %3 = icmp eq i8 %2, 0
  br i1 %3, label %4, label %_ZN2cv5utils5trace7details15getTraceManagerEv.exit, !prof !28

4:                                                ; preds = %1
  %5 = tail call i32 @__cxa_guard_acquire(ptr nonnull @_ZGVZN2cv5utils5trace7details15getTraceManagerEvE8instance) #24
  %.not.i = icmp eq i32 %5, 0
  br i1 %.not.i, label %_ZN2cv5utils5trace7details15getTraceManagerEv.exit, label %6

6:                                                ; preds = %4
  invoke fastcc void @_ZN2cv5utils5trace7detailsL23getTraceManagerCallOnceEv()
          to label %7 unwind label %9

7:                                                ; preds = %6
  store ptr @_ZZN2cv5utils5trace7detailsL23getTraceManagerCallOnceEvE14globalInstance, ptr @_ZZN2cv5utils5trace7details15getTraceManagerEvE8instance, align 8, !tbaa !29
  %8 = tail call ptr @llvm.invariant.start.p0(i64 8, ptr nonnull @_ZZN2cv5utils5trace7details15getTraceManagerEvE8instance)
  tail call void @__cxa_guard_release(ptr nonnull @_ZGVZN2cv5utils5trace7details15getTraceManagerEvE8instance) #24
  br label %_ZN2cv5utils5trace7details15getTraceManagerEv.exit

9:                                                ; preds = %6
  %10 = landingpad { ptr, i32 }
          cleanup
  tail call void @__cxa_guard_abort(ptr nonnull @_ZGVZN2cv5utils5trace7details15getTraceManagerEvE8instance) #24
  resume { ptr, i32 } %10

_ZN2cv5utils5trace7details15getTraceManagerEv.exit: ; preds = %1, %4, %7
  %11 = load ptr, ptr @_ZZN2cv5utils5trace7details15getTraceManagerEvE8instance, align 8, !tbaa !29
  %12 = getelementptr inbounds nuw i8, ptr %11, i64 80
  %13 = tail call noundef nonnull align 8 dereferenceable(208) ptr @_ZNK2cv16TLSDataContainer7getDataEv(ptr noundef nonnull align 8 dereferenceable(12) %12)
  %14 = getelementptr inbounds nuw i8, ptr %13, i64 16
  %15 = load ptr, ptr %14, align 8, !tbaa !80
  %.not = icmp eq ptr %15, null
  br i1 %.not, label %35, label %16

16:                                               ; preds = %_ZN2cv5utils5trace7details15getTraceManagerEv.exit
  %17 = load ptr, ptr %0, align 8, !tbaa !73
  %.not11 = icmp eq ptr %17, null
  br i1 %.not11, label %35, label %18

18:                                               ; preds = %16
  %19 = getelementptr inbounds nuw i8, ptr %17, i64 52
  %20 = load i8, ptr %19, align 4, !tbaa !72, !range !21, !noundef !22
  %21 = trunc nuw i8 %20 to i1
  br i1 %21, label %22, label %35

22:                                               ; preds = %18
  %23 = load ptr, ptr %15, align 8, !tbaa !73
  %.not12 = icmp eq ptr %23, null
  br i1 %.not12, label %35, label %24

24:                                               ; preds = %22
  %25 = load ptr, ptr @_ZN2cv5utils5trace7detailsL6domainE, align 8, !tbaa !23
  %26 = icmp eq ptr %25, null
  br i1 %26, label %35, label %27

27:                                               ; preds = %24
  %28 = load volatile i32, ptr %25, align 8, !tbaa !77
  %29 = icmp ne i32 %28, 0
  %30 = load ptr, ptr @__itt_relation_add_ptr__3_0, align 8
  %31 = icmp ne ptr %30, null
  %or.cond = select i1 %29, i1 %31, i1 false
  br i1 %or.cond, label %32, label %35

32:                                               ; preds = %27
  %33 = getelementptr inbounds nuw i8, ptr %23, i64 56
  %34 = getelementptr inbounds nuw i8, ptr %17, i64 56
  tail call void %30(ptr noundef nonnull %25, ptr noundef nonnull byval(%struct.___itt_id) align 8 %33, i32 noundef 5, ptr noundef nonnull byval(%struct.___itt_id) align 8 %34)
  br label %35

35:                                               ; preds = %24, %32, %27, %22, %16, %18, %_ZN2cv5utils5trace7details15getTraceManagerEv.exit
  ret void
}